target datalayout = "e-m:e-p270:32:32-p271:32:32-p272:64:64-i64:64-i128:128-f80:128-n8:16:32:64-S128"
target triple = "x86_64-pc-linux-gnu"

%struct.malloc_params = type { i64, i64, i64, i64, i64, i32 }
%struct.malloc_state = type { i32, i32, i64, i64, ptr, ptr, ptr, i64, i64, i64, [66 x ptr], [32 x ptr], i64, i64, i64, i32, i32, %struct.malloc_segment, ptr, i64 }
%struct.malloc_segment = type { ptr, i64, ptr, i32 }

@mparams = internal global %struct.malloc_params zeroinitializer, align 8
@_gm_ = internal global %struct.malloc_state zeroinitializer, align 8

; Function Attrs: nounwind uwtable
define hidden i32 @boost_cont_malloc_check() #0 {
  %1 = alloca ptr, align 8
  call void @llvm.lifetime.start.p0(i64 8, ptr %1) #9
  store ptr @_gm_, ptr %1, align 8, !tbaa !16
  %2 = load i64, ptr @mparams, align 8, !tbaa !7
  %3 = icmp ne i64 %2, 0
  br i1 %3, label %6, label %4

4:                                                ; preds = %0
  %5 = call i32 @init_mparams()
  br label %6

6:                                                ; preds = %4, %0
  call void @llvm.lifetime.end.p0(i64 8, ptr %1) #9
  ret i32 1
}