; Function Attrs: nounwind uwtable
define hidden noundef i32 @boost_cont_malloc_check() local_unnamed_addr #0 {
  %1 = load i64, ptr @mparams, align 8, !tbaa !3
  %.not = icmp eq i64 %1, 0
  br i1 %.not, label %2, label %3

2:                                                ; preds = %0
  tail call fastcc void @init_mparams()
  br label %3

3:                                                ; preds = %2, %0
  ret i32 1
}